	.section	__TEXT,__text,regular,pure_instructions
	.macosx_version_min 10, 13
	.globl	_validity               ## -- Begin function validity
	.p2align	4, 0x90
_validity:                              ## @validity
Lfunc_begin0:
	.file	1 "q2_extract_wiki_links.c"
	.loc	1 6 0                   ## q2_extract_wiki_links.c:6:0
	.cfi_startproc
## %bb.0:
	pushq	%rbp
	.cfi_def_cfa_offset 16
	.cfi_offset %rbp, -16
	movq	%rsp, %rbp
	.cfi_def_cfa_register %rbp
	pushq	%r15
	pushq	%r14
	pushq	%r12
	pushq	%rbx
	.cfi_offset %rbx, -48
	.cfi_offset %r12, -40
	.cfi_offset %r14, -32
	.cfi_offset %r15, -24
	##DEBUG_VALUE: validity:input <- %rdi
	##DEBUG_VALUE: validity:check <- %rsi
	##DEBUG_VALUE: validity:index <- %edx
	movl	%edx, %r15d
	movq	%rsi, %r12
	movq	%rdi, %r14
Ltmp0:
	##DEBUG_VALUE: i <- 0
	##DEBUG_VALUE: validity:count <- 0
	##DEBUG_VALUE: validity:index <- %r15d
	##DEBUG_VALUE: validity:check <- %r12
	##DEBUG_VALUE: validity:input <- %r14
	.loc	1 8 27 prologue_end     ## q2_extract_wiki_links.c:8:27
	movq	%r12, %rdi
	callq	_strlen
	.loc	1 8 26 is_stmt 0        ## q2_extract_wiki_links.c:8:26
	testq	%rax, %rax
Ltmp1:
	.loc	1 8 9                   ## q2_extract_wiki_links.c:8:9
	je	LBB0_1
Ltmp2:
## %bb.2:
	##DEBUG_VALUE: validity:input <- %r14
	##DEBUG_VALUE: validity:check <- %r12
	##DEBUG_VALUE: validity:index <- %r15d
	movslq	%r15d, %rcx
	addq	%rcx, %r14
Ltmp3:
	.loc	1 0 9                   ## q2_extract_wiki_links.c:0:9
	xorl	%ebx, %ebx
Ltmp4:
	.p2align	4, 0x90
LBB0_3:                                 ## =>This Inner Loop Header: Depth=1
	##DEBUG_VALUE: validity:check <- %r12
	##DEBUG_VALUE: validity:index <- %r15d
	movq	%rbx, %r15
Ltmp5:
	##DEBUG_VALUE: i <- %r15
	##DEBUG_VALUE: validity:count <- %r15
	.loc	1 10 16 is_stmt 1       ## q2_extract_wiki_links.c:10:16
	movzbl	(%r14,%r15), %ecx
	.loc	1 10 29 is_stmt 0       ## q2_extract_wiki_links.c:10:29
	cmpb	(%r12,%r15), %cl
Ltmp6:
	.loc	1 10 16                 ## q2_extract_wiki_links.c:10:16
	jne	LBB0_7
Ltmp7:
## %bb.4:                               ##   in Loop: Header=BB0_3 Depth=1
	##DEBUG_VALUE: validity:count <- %r15
	##DEBUG_VALUE: i <- %r15
	##DEBUG_VALUE: validity:check <- %r12
	.loc	1 11 22 is_stmt 1       ## q2_extract_wiki_links.c:11:22
	leaq	1(%r15), %rbx
Ltmp8:
	.loc	1 17 23                 ## q2_extract_wiki_links.c:17:23
	cmpq	%rax, %rbx
Ltmp9:
	.loc	1 17 17 is_stmt 0       ## q2_extract_wiki_links.c:17:17
	je	LBB0_6
Ltmp10:
## %bb.5:                               ##   in Loop: Header=BB0_3 Depth=1
	##DEBUG_VALUE: validity:count <- %r15
	##DEBUG_VALUE: i <- %r15
	##DEBUG_VALUE: validity:check <- %r12
	.loc	1 8 27 is_stmt 1        ## q2_extract_wiki_links.c:8:27
	movq	%r12, %rdi
	callq	_strlen
	.loc	1 8 26 is_stmt 0        ## q2_extract_wiki_links.c:8:26
	cmpq	%rbx, %rax
Ltmp11:
	.loc	1 8 9                   ## q2_extract_wiki_links.c:8:9
	ja	LBB0_3
Ltmp12:
LBB0_6:
	##DEBUG_VALUE: validity:count <- %r15
	##DEBUG_VALUE: validity:check <- %r12
	.loc	1 24 9 is_stmt 1        ## q2_extract_wiki_links.c:24:9
	incl	%r15d
Ltmp13:
	.loc	1 0 9 is_stmt 0         ## q2_extract_wiki_links.c:0:9
	jmp	LBB0_7
Ltmp14:
LBB0_1:
	##DEBUG_VALUE: validity:input <- %r14
	##DEBUG_VALUE: validity:check <- %r12
	##DEBUG_VALUE: validity:index <- %r15d
	xorl	%eax, %eax
	xorl	%r15d, %r15d
Ltmp15:
LBB0_7:
	##DEBUG_VALUE: validity:check <- %r12
	##DEBUG_VALUE: validity:count <- %r15d
	.loc	1 24 9                  ## q2_extract_wiki_links.c:24:9
	movslq	%r15d, %rdx
	.loc	1 24 15                 ## q2_extract_wiki_links.c:24:15
	xorl	%ecx, %ecx
	cmpq	%rdx, %rax
	setne	%cl
Ltmp16:
	.loc	1 25 9 is_stmt 1        ## q2_extract_wiki_links.c:25:9
	negl	%ecx
Ltmp17:
	.loc	1 29 5                  ## q2_extract_wiki_links.c:29:5
	movl	%ecx, %eax
	popq	%rbx
	popq	%r12
Ltmp18:
	popq	%r14
	popq	%r15
Ltmp19:
	popq	%rbp
	retq
Ltmp20:
Lfunc_end0:
	.cfi_endproc
                                        ## -- End function
	.globl	_findMiddleTag          ## -- Begin function findMiddleTag
	.p2align	4, 0x90
_findMiddleTag:                         ## @findMiddleTag
Lfunc_begin1:
	.loc	1 31 0                  ## q2_extract_wiki_links.c:31:0
	.cfi_startproc
## %bb.0:
	pushq	%rbp
	.cfi_def_cfa_offset 16
	.cfi_offset %rbp, -16
	movq	%rsp, %rbp
	.cfi_def_cfa_register %rbp
	pushq	%r15
	pushq	%r14
	pushq	%r13
	pushq	%r12
	pushq	%rbx
	subq	$24, %rsp
	.cfi_offset %rbx, -56
	.cfi_offset %r12, -48
	.cfi_offset %r13, -40
	.cfi_offset %r14, -32
	.cfi_offset %r15, -24
	##DEBUG_VALUE: findMiddleTag:input <- %rdi
	##DEBUG_VALUE: findMiddleTag:check <- %rsi
	##DEBUG_VALUE: findMiddleTag:index <- %edx
	##DEBUG_VALUE: findMiddleTag:finalIndex <- %ecx
Ltmp21:
	##DEBUG_VALUE: i <- %edx
	##DEBUG_VALUE: validity:check <- %rsi
	movl	%ecx, %r13d
	movl	%edx, %r14d
	movq	%rsi, %rbx
Ltmp22:
	##DEBUG_VALUE: validity:check <- %rbx
	movq	%rdi, %r15
	movl	$-1, %eax
Ltmp23:
	##DEBUG_VALUE: i <- %r14d
	##DEBUG_VALUE: findMiddleTag:finalIndex <- %r13d
	##DEBUG_VALUE: findMiddleTag:index <- %r14d
	##DEBUG_VALUE: findMiddleTag:check <- %rbx
	##DEBUG_VALUE: findMiddleTag:input <- %r15
	.loc	1 33 28 prologue_end    ## q2_extract_wiki_links.c:33:28
	cmpl	%r13d, %r14d
Ltmp24:
	.loc	1 33 9 is_stmt 0        ## q2_extract_wiki_links.c:33:9
	jge	LBB1_13
Ltmp25:
## %bb.1:
	##DEBUG_VALUE: findMiddleTag:input <- %r15
	##DEBUG_VALUE: findMiddleTag:check <- %rbx
	##DEBUG_VALUE: findMiddleTag:index <- %r14d
	##DEBUG_VALUE: findMiddleTag:finalIndex <- %r13d
	##DEBUG_VALUE: i <- %r14d
	##DEBUG_VALUE: validity:check <- %rbx
	.loc	1 8 27 is_stmt 1        ## q2_extract_wiki_links.c:8:27
	movq	%rbx, %rdi
	callq	_strlen
Ltmp26:
	.loc	1 33 9                  ## q2_extract_wiki_links.c:33:9
	movslq	%r14d, %r14
Ltmp27:
	movslq	%r13d, %rcx
	movq	%rcx, -48(%rbp)         ## 8-byte Spill
	addq	%r14, %r15
Ltmp28:
	.loc	1 0 9 is_stmt 0         ## q2_extract_wiki_links.c:0:9
	movq	%rax, -56(%rbp)         ## 8-byte Spill
Ltmp29:
	.p2align	4, 0x90
LBB1_2:                                 ## =>This Loop Header: Depth=1
                                        ##     Child Loop BB1_7 Depth 2
	##DEBUG_VALUE: findMiddleTag:check <- %rbx
	##DEBUG_VALUE: findMiddleTag:finalIndex <- %r13d
	##DEBUG_VALUE: validity:check <- %rbx
	testq	%rax, %rax
Ltmp30:
	##DEBUG_VALUE: i <- 0
	##DEBUG_VALUE: validity:count <- 0
	.loc	1 8 9 is_stmt 1         ## q2_extract_wiki_links.c:8:9
	je	LBB1_3
Ltmp31:
## %bb.6:                               ##   in Loop: Header=BB1_2 Depth=1
	##DEBUG_VALUE: findMiddleTag:check <- %rbx
	##DEBUG_VALUE: findMiddleTag:finalIndex <- %r13d
	.loc	1 0 9 is_stmt 0         ## q2_extract_wiki_links.c:0:9
	xorl	%r13d, %r13d
Ltmp32:
	.p2align	4, 0x90
LBB1_7:                                 ##   Parent Loop BB1_2 Depth=1
                                        ## =>  This Inner Loop Header: Depth=2
	##DEBUG_VALUE: findMiddleTag:check <- %rbx
	movq	%r13, %r12
Ltmp33:
	##DEBUG_VALUE: i <- %r12
	##DEBUG_VALUE: validity:count <- %r12
	.loc	1 10 16 is_stmt 1       ## q2_extract_wiki_links.c:10:16
	movzbl	(%r15,%r12), %ecx
	.loc	1 10 29 is_stmt 0       ## q2_extract_wiki_links.c:10:29
	cmpb	(%rbx,%r12), %cl
Ltmp34:
	.loc	1 10 16                 ## q2_extract_wiki_links.c:10:16
	jne	LBB1_11
Ltmp35:
## %bb.8:                               ##   in Loop: Header=BB1_7 Depth=2
	##DEBUG_VALUE: validity:count <- %r12
	##DEBUG_VALUE: i <- %r12
	##DEBUG_VALUE: findMiddleTag:check <- %rbx
	.loc	1 11 22 is_stmt 1       ## q2_extract_wiki_links.c:11:22
	leaq	1(%r12), %r13
Ltmp36:
	.loc	1 17 23                 ## q2_extract_wiki_links.c:17:23
	cmpq	%rax, %r13
Ltmp37:
	.loc	1 17 17 is_stmt 0       ## q2_extract_wiki_links.c:17:17
	je	LBB1_10
Ltmp38:
## %bb.9:                               ##   in Loop: Header=BB1_7 Depth=2
	##DEBUG_VALUE: validity:count <- %r12
	##DEBUG_VALUE: i <- %r12
	##DEBUG_VALUE: findMiddleTag:check <- %rbx
	.loc	1 8 27 is_stmt 1        ## q2_extract_wiki_links.c:8:27
	movq	%rbx, %rdi
	callq	_strlen
	.loc	1 8 26 is_stmt 0        ## q2_extract_wiki_links.c:8:26
	cmpq	%r13, %rax
Ltmp39:
	.loc	1 8 9                   ## q2_extract_wiki_links.c:8:9
	ja	LBB1_7
Ltmp40:
LBB1_10:                                ##   in Loop: Header=BB1_2 Depth=1
	##DEBUG_VALUE: validity:count <- %r12
	##DEBUG_VALUE: findMiddleTag:check <- %rbx
	.loc	1 24 9 is_stmt 1        ## q2_extract_wiki_links.c:24:9
	incl	%r12d
Ltmp41:
	.loc	1 0 9 is_stmt 0         ## q2_extract_wiki_links.c:0:9
	jmp	LBB1_11
Ltmp42:
	.p2align	4, 0x90
LBB1_3:                                 ##   in Loop: Header=BB1_2 Depth=1
	##DEBUG_VALUE: findMiddleTag:check <- %rbx
	##DEBUG_VALUE: findMiddleTag:finalIndex <- %r13d
	##DEBUG_VALUE: validity:check <- %rbx
	xorl	%eax, %eax
	xorl	%r12d, %r12d
Ltmp43:
LBB1_11:                                ##   in Loop: Header=BB1_2 Depth=1
	##DEBUG_VALUE: findMiddleTag:check <- %rbx
	##DEBUG_VALUE: validity:count <- %r12d
	.loc	1 24 9                  ## q2_extract_wiki_links.c:24:9
	movslq	%r12d, %rcx
Ltmp44:
	##DEBUG_VALUE: i <- %r14
	.loc	1 24 15                 ## q2_extract_wiki_links.c:24:15
	cmpq	%rcx, %rax
Ltmp45:
	.loc	1 34 17 is_stmt 1       ## q2_extract_wiki_links.c:34:17
	je	LBB1_12
Ltmp46:
## %bb.4:                               ##   in Loop: Header=BB1_2 Depth=1
	##DEBUG_VALUE: i <- %r14
	##DEBUG_VALUE: findMiddleTag:check <- %rbx
	.loc	1 0 17 is_stmt 0        ## q2_extract_wiki_links.c:0:17
	incq	%r14
Ltmp47:
	.loc	1 33 9 is_stmt 1        ## q2_extract_wiki_links.c:33:9
	incq	%r15
Ltmp48:
	.loc	1 33 28 is_stmt 0       ## q2_extract_wiki_links.c:33:28
	cmpq	-48(%rbp), %r14         ## 8-byte Folded Reload
	movq	-56(%rbp), %rax         ## 8-byte Reload
Ltmp49:
	.loc	1 33 9                  ## q2_extract_wiki_links.c:33:9
	jl	LBB1_2
Ltmp50:
## %bb.5:
	##DEBUG_VALUE: findMiddleTag:check <- %rbx
	.loc	1 0 9                   ## q2_extract_wiki_links.c:0:9
	movl	$-1, %eax
	jmp	LBB1_13
Ltmp51:
LBB1_12:
	##DEBUG_VALUE: findMiddleTag:check <- %rbx
	xorl	%eax, %eax
Ltmp52:
LBB1_13:
	##DEBUG_VALUE: findMiddleTag:check <- %rbx
	.loc	1 39 5 is_stmt 1        ## q2_extract_wiki_links.c:39:5
	addq	$24, %rsp
	popq	%rbx
Ltmp53:
	popq	%r12
	popq	%r13
	popq	%r14
	popq	%r15
	popq	%rbp
	retq
Ltmp54:
Lfunc_end1:
	.cfi_endproc
                                        ## -- End function
	.globl	_findEndingTag          ## -- Begin function findEndingTag
	.p2align	4, 0x90
_findEndingTag:                         ## @findEndingTag
Lfunc_begin2:
	.loc	1 41 0                  ## q2_extract_wiki_links.c:41:0
	.cfi_startproc
## %bb.0:
	pushq	%rbp
	.cfi_def_cfa_offset 16
	.cfi_offset %rbp, -16
	movq	%rsp, %rbp
	.cfi_def_cfa_register %rbp
	pushq	%r15
	pushq	%r14
	pushq	%r13
	pushq	%r12
	pushq	%rbx
	subq	$24, %rsp
	.cfi_offset %rbx, -56
	.cfi_offset %r12, -48
	.cfi_offset %r13, -40
	.cfi_offset %r14, -32
	.cfi_offset %r15, -24
	##DEBUG_VALUE: findEndingTag:input <- %rdi
	##DEBUG_VALUE: findEndingTag:check <- %rsi
	##DEBUG_VALUE: findEndingTag:index <- %edx
Ltmp55:
	##DEBUG_VALUE: i <- %edx
	##DEBUG_VALUE: validity:check <- %rsi
	##DEBUG_VALUE: validity:input <- %rdi
	movq	%rsi, %rbx
Ltmp56:
	##DEBUG_VALUE: validity:check <- %rbx
	movq	%rdi, %r15
Ltmp57:
	##DEBUG_VALUE: validity:input <- %r15
	##DEBUG_VALUE: i <- %edx
	##DEBUG_VALUE: findEndingTag:index <- %edx
	##DEBUG_VALUE: findEndingTag:check <- %rbx
	##DEBUG_VALUE: findEndingTag:input <- %r15
	.loc	1 43 27 prologue_end    ## q2_extract_wiki_links.c:43:27
	movslq	%edx, %r13
	.loc	1 43 29 is_stmt 0       ## q2_extract_wiki_links.c:43:29
	callq	_strlen
Ltmp58:
	.loc	1 0 29                  ## q2_extract_wiki_links.c:0:29
	movl	$-1, %ecx
	.loc	1 43 28                 ## q2_extract_wiki_links.c:43:28
	cmpq	%r13, %rax
Ltmp59:
	.loc	1 43 9                  ## q2_extract_wiki_links.c:43:9
	jbe	LBB2_14
Ltmp60:
## %bb.1:
	##DEBUG_VALUE: findEndingTag:input <- %r15
	##DEBUG_VALUE: findEndingTag:check <- %rbx
	##DEBUG_VALUE: validity:input <- %r15
	##DEBUG_VALUE: validity:check <- %rbx
	.loc	1 8 27 is_stmt 1        ## q2_extract_wiki_links.c:8:27
	movq	%rbx, %rdi
	callq	_strlen
Ltmp61:
	.loc	1 43 9                  ## q2_extract_wiki_links.c:43:9
	leaq	(%r15,%r13), %r14
	movq	%rax, -56(%rbp)         ## 8-byte Spill
	movq	%r15, -48(%rbp)         ## 8-byte Spill
Ltmp62:
	.p2align	4, 0x90
LBB2_2:                                 ## =>This Loop Header: Depth=1
                                        ##     Child Loop BB2_5 Depth 2
	##DEBUG_VALUE: findEndingTag:input <- %r15
	##DEBUG_VALUE: findEndingTag:check <- %rbx
	##DEBUG_VALUE: validity:input <- %r15
	##DEBUG_VALUE: validity:check <- %rbx
	.loc	1 0 9 is_stmt 0         ## q2_extract_wiki_links.c:0:9
	testq	%rax, %rax
Ltmp63:
	##DEBUG_VALUE: i <- 0
	##DEBUG_VALUE: validity:count <- 0
	.loc	1 8 9 is_stmt 1         ## q2_extract_wiki_links.c:8:9
	je	LBB2_3
Ltmp64:
## %bb.4:                               ##   in Loop: Header=BB2_2 Depth=1
	##DEBUG_VALUE: findEndingTag:input <- %r15
	##DEBUG_VALUE: findEndingTag:check <- %rbx
	.loc	1 0 9 is_stmt 0         ## q2_extract_wiki_links.c:0:9
	xorl	%r15d, %r15d
Ltmp65:
	.p2align	4, 0x90
LBB2_5:                                 ##   Parent Loop BB2_2 Depth=1
                                        ## =>  This Inner Loop Header: Depth=2
	##DEBUG_VALUE: findEndingTag:check <- %rbx
	movq	%r15, %r12
Ltmp66:
	##DEBUG_VALUE: i <- %r12
	##DEBUG_VALUE: validity:count <- %r12
	.loc	1 10 16 is_stmt 1       ## q2_extract_wiki_links.c:10:16
	movzbl	(%r14,%r12), %ecx
	.loc	1 10 29 is_stmt 0       ## q2_extract_wiki_links.c:10:29
	cmpb	(%rbx,%r12), %cl
Ltmp67:
	.loc	1 10 16                 ## q2_extract_wiki_links.c:10:16
	jne	LBB2_9
Ltmp68:
## %bb.6:                               ##   in Loop: Header=BB2_5 Depth=2
	##DEBUG_VALUE: validity:count <- %r12
	##DEBUG_VALUE: i <- %r12
	##DEBUG_VALUE: findEndingTag:check <- %rbx
	.loc	1 11 22 is_stmt 1       ## q2_extract_wiki_links.c:11:22
	leaq	1(%r12), %r15
Ltmp69:
	.loc	1 17 23                 ## q2_extract_wiki_links.c:17:23
	cmpq	%rax, %r15
Ltmp70:
	.loc	1 17 17 is_stmt 0       ## q2_extract_wiki_links.c:17:17
	je	LBB2_8
Ltmp71:
## %bb.7:                               ##   in Loop: Header=BB2_5 Depth=2
	##DEBUG_VALUE: validity:count <- %r12
	##DEBUG_VALUE: i <- %r12
	##DEBUG_VALUE: findEndingTag:check <- %rbx
	.loc	1 8 27 is_stmt 1        ## q2_extract_wiki_links.c:8:27
	movq	%rbx, %rdi
	callq	_strlen
	.loc	1 8 26 is_stmt 0        ## q2_extract_wiki_links.c:8:26
	cmpq	%r15, %rax
Ltmp72:
	.loc	1 8 9                   ## q2_extract_wiki_links.c:8:9
	ja	LBB2_5
Ltmp73:
LBB2_8:                                 ##   in Loop: Header=BB2_2 Depth=1
	##DEBUG_VALUE: validity:count <- %r12
	##DEBUG_VALUE: findEndingTag:check <- %rbx
	.loc	1 24 9 is_stmt 1        ## q2_extract_wiki_links.c:24:9
	incl	%r12d
Ltmp74:
LBB2_9:                                 ##   in Loop: Header=BB2_2 Depth=1
	##DEBUG_VALUE: findEndingTag:check <- %rbx
	.loc	1 0 9 is_stmt 0         ## q2_extract_wiki_links.c:0:9
	movq	-48(%rbp), %r15         ## 8-byte Reload
	jmp	LBB2_10
Ltmp75:
	.p2align	4, 0x90
LBB2_3:                                 ##   in Loop: Header=BB2_2 Depth=1
	##DEBUG_VALUE: findEndingTag:input <- %r15
	##DEBUG_VALUE: findEndingTag:check <- %rbx
	##DEBUG_VALUE: validity:input <- %r15
	##DEBUG_VALUE: validity:check <- %rbx
	xorl	%eax, %eax
	xorl	%r12d, %r12d
Ltmp76:
LBB2_10:                                ##   in Loop: Header=BB2_2 Depth=1
	##DEBUG_VALUE: findEndingTag:check <- %rbx
	##DEBUG_VALUE: validity:count <- %r12d
	.loc	1 24 9                  ## q2_extract_wiki_links.c:24:9
	movslq	%r12d, %rcx
	.loc	1 24 15                 ## q2_extract_wiki_links.c:24:15
	cmpq	%rcx, %rax
Ltmp77:
	.loc	1 44 17 is_stmt 1       ## q2_extract_wiki_links.c:44:17
	je	LBB2_13
Ltmp78:
## %bb.11:                              ##   in Loop: Header=BB2_2 Depth=1
	##DEBUG_VALUE: findEndingTag:check <- %rbx
	##DEBUG_VALUE: i <- %r13
	.loc	1 43 45                 ## q2_extract_wiki_links.c:43:45
	incq	%r13
Ltmp79:
	.loc	1 43 29 is_stmt 0       ## q2_extract_wiki_links.c:43:29
	movq	%r15, %rdi
	callq	_strlen
Ltmp80:
	.loc	1 43 9                  ## q2_extract_wiki_links.c:43:9
	incq	%r14
Ltmp81:
	.loc	1 43 28                 ## q2_extract_wiki_links.c:43:28
	cmpq	%r13, %rax
	movq	-56(%rbp), %rax         ## 8-byte Reload
Ltmp82:
	.loc	1 43 9                  ## q2_extract_wiki_links.c:43:9
	ja	LBB2_2
Ltmp83:
## %bb.12:
	##DEBUG_VALUE: findEndingTag:check <- %rbx
	.loc	1 0 9                   ## q2_extract_wiki_links.c:0:9
	movl	$-1, %ecx
	jmp	LBB2_14
Ltmp84:
LBB2_13:
	##DEBUG_VALUE: findEndingTag:check <- %rbx
	movl	%r13d, %ecx
Ltmp85:
LBB2_14:
	##DEBUG_VALUE: findEndingTag:check <- %rbx
	.loc	1 50 5 is_stmt 1        ## q2_extract_wiki_links.c:50:5
	movl	%ecx, %eax
	addq	$24, %rsp
	popq	%rbx
Ltmp86:
	popq	%r12
	popq	%r13
	popq	%r14
	popq	%r15
	popq	%rbp
	retq
Ltmp87:
Lfunc_end2:
	.cfi_endproc
                                        ## -- End function
	.globl	_printTitle             ## -- Begin function printTitle
	.p2align	4, 0x90
_printTitle:                            ## @printTitle
Lfunc_begin3:
	.loc	1 52 0                  ## q2_extract_wiki_links.c:52:0
	.cfi_startproc
## %bb.0:
	pushq	%rbp
	.cfi_def_cfa_offset 16
	.cfi_offset %rbp, -16
	movq	%rsp, %rbp
	.cfi_def_cfa_register %rbp
Ltmp88:
	.loc	1 53 19 prologue_end    ## q2_extract_wiki_links.c:53:19
	pushq	%rbx
	pushq	%rax
	.cfi_offset %rbx, -24
	##DEBUG_VALUE: printTitle:input <- %rdi
	##DEBUG_VALUE: printTitle:input <- %rdi
	##DEBUG_VALUE: printTitle:index <- %esi
	##DEBUG_VALUE: printTitle:index <- %esi
	movslq	%esi, %rcx
	movb	(%rdi,%rcx), %al
	.loc	1 53 32 is_stmt 0       ## q2_extract_wiki_links.c:53:32
	cmpb	$34, %al
	.loc	1 53 13                 ## q2_extract_wiki_links.c:53:13
	je	LBB3_3
Ltmp89:
## %bb.1:
	##DEBUG_VALUE: printTitle:index <- %esi
	##DEBUG_VALUE: printTitle:input <- %rdi
	.loc	1 53 19                 ## q2_extract_wiki_links.c:53:19
	leaq	1(%rdi,%rcx), %rbx
Ltmp90:
	.p2align	4, 0x90
LBB3_2:                                 ## =>This Inner Loop Header: Depth=1
	##DEBUG_VALUE: printTitle:index <- %esi
	##DEBUG_VALUE: printTitle:input <- %rdi
	movsbl	%al, %edi
Ltmp91:
	.loc	1 54 17 is_stmt 1       ## q2_extract_wiki_links.c:54:17
	callq	_putchar
Ltmp92:
	.loc	1 53 19                 ## q2_extract_wiki_links.c:53:19
	movzbl	(%rbx), %eax
	.loc	1 53 13 is_stmt 0       ## q2_extract_wiki_links.c:53:13
	incq	%rbx
	.loc	1 53 32                 ## q2_extract_wiki_links.c:53:32
	cmpb	$34, %al
	.loc	1 53 13                 ## q2_extract_wiki_links.c:53:13
	jne	LBB3_2
LBB3_3:
	.loc	1 57 13 is_stmt 1       ## q2_extract_wiki_links.c:57:13
	movl	$10, %edi
	addq	$8, %rsp
	popq	%rbx
	popq	%rbp
	jmp	_putchar                ## TAILCALL
Ltmp93:
Lfunc_end3:
	.cfi_endproc
                                        ## -- End function
	.globl	_main                   ## -- Begin function main
	.p2align	4, 0x90
_main:                                  ## @main
Lfunc_begin4:
	.loc	1 62 0                  ## q2_extract_wiki_links.c:62:0
	.cfi_startproc
## %bb.0:
	pushq	%rbp
	.cfi_def_cfa_offset 16
	.cfi_offset %rbp, -16
	movq	%rsp, %rbp
	.cfi_def_cfa_register %rbp
	pushq	%r15
	pushq	%r14
	pushq	%r13
	pushq	%r12
	pushq	%rbx
	subq	$72, %rsp
	.cfi_offset %rbx, -56
	.cfi_offset %r12, -48
	.cfi_offset %r13, -40
	.cfi_offset %r14, -32
	.cfi_offset %r15, -24
	##DEBUG_VALUE: main:argc <- %edi
	##DEBUG_VALUE: main:argv <- %rsi
	movq	___stack_chk_guard@GOTPCREL(%rip), %rax
	movq	(%rax), %rax
	movq	%rax, -48(%rbp)
	##DEBUG_VALUE: main:argv <- %rsi
Ltmp94:
	.loc	1 65 17 prologue_end    ## q2_extract_wiki_links.c:65:17
	movq	8(%rsi), %rdi
Ltmp95:
	.loc	1 65 10 is_stmt 0       ## q2_extract_wiki_links.c:65:10
	leaq	L_.str.2(%rip), %rsi
Ltmp96:
	callq	_fopen
	movq	%rax, %r14
Ltmp97:
	##DEBUG_VALUE: main:fp <- %r14
	.loc	1 66 5 is_stmt 1        ## q2_extract_wiki_links.c:66:5
	xorl	%esi, %esi
	movl	$2, %edx
	movq	%r14, %rdi
	callq	_fseek
	.loc	1 67 14                 ## q2_extract_wiki_links.c:67:14
	movq	%r14, %rdi
	callq	_ftell
	movq	%rax, %r15
Ltmp98:
	##DEBUG_VALUE: main:sz <- %r15d
	.loc	1 68 5                  ## q2_extract_wiki_links.c:68:5
	movq	%r14, %rdi
	callq	_rewind
	.loc	1 70 23                 ## q2_extract_wiki_links.c:70:23
	incl	%r15d
Ltmp99:
	.loc	1 70 5 is_stmt 0        ## q2_extract_wiki_links.c:70:5
	leaq	15(%r15), %rax
	movabsq	$8589934576, %rbx       ## imm = 0x1FFFFFFF0
	andq	%rax, %rbx
	movq	%rsp, %r12
	movq	%r12, %r13
	subq	%rbx, %r13
	negq	%rbx
Ltmp100:
	##DEBUG_VALUE: main:sourceCode <- [%r13+0]
	movq	%r13, %rsp
	.loc	1 71 27 is_stmt 1       ## q2_extract_wiki_links.c:71:27
	movslq	%r15d, %rdx
	.loc	1 71 5 is_stmt 0        ## q2_extract_wiki_links.c:71:5
	movl	$1, %esi
	movq	%r13, %rdi
	movq	%r14, %rcx
	callq	_fread
	.loc	1 74 10 is_stmt 1       ## q2_extract_wiki_links.c:74:10
	movabsq	$9637655028722036, %rax ## imm = 0x223D656C746974
Ltmp101:
	##DEBUG_VALUE: main:check2 <- 9637655028722036
	movq	%rax, -56(%rbp)
Ltmp102:
	##DEBUG_VALUE: i <- 0
	.loc	1 77 21                 ## q2_extract_wiki_links.c:77:21
	movb	(%r12,%rbx), %r12b
	.loc	1 77 20 is_stmt 0       ## q2_extract_wiki_links.c:77:20
	testb	%r12b, %r12b
Ltmp103:
	.loc	1 77 5                  ## q2_extract_wiki_links.c:77:5
	je	LBB4_23
Ltmp104:
## %bb.1:
	##DEBUG_VALUE: main:sourceCode <- [%r13+0]
	##DEBUG_VALUE: main:fp <- %r14
	.loc	1 10 29 is_stmt 1       ## q2_extract_wiki_links.c:10:29
	leaq	16(%r13), %rax
	movq	%rax, -80(%rbp)         ## 8-byte Spill
	xorl	%ebx, %ebx
	movl	$1, %r15d
	.loc	1 10 16 is_stmt 0       ## q2_extract_wiki_links.c:10:16
	movq	%r13, %r14
Ltmp105:
	##DEBUG_VALUE: validity:count <- 0
	##DEBUG_VALUE: i <- 0
	.loc	1 10 29                 ## q2_extract_wiki_links.c:10:29
	cmpb	$60, %r12b
Ltmp106:
	.loc	1 10 16                 ## q2_extract_wiki_links.c:10:16
	jne	LBB4_49
	jmp	LBB4_3
Ltmp107:
	.p2align	4, 0x90
LBB4_50:                                ##   in Loop: Header=BB4_49 Depth=1
	##DEBUG_VALUE: main:sourceCode <- [%r13+0]
	.loc	1 10 16                 ## q2_extract_wiki_links.c:10:16
	movzbl	(%r13,%rbx), %r12d
Ltmp108:
	.loc	1 77 5 is_stmt 1        ## q2_extract_wiki_links.c:77:5
	incq	%r15
	incq	%r14
	incq	-80(%rbp)               ## 8-byte Folded Spill
	##DEBUG_VALUE: validity:count <- 0
	##DEBUG_VALUE: i <- 0
Ltmp109:
	.loc	1 10 29                 ## q2_extract_wiki_links.c:10:29
	cmpb	$60, %r12b
Ltmp110:
	.loc	1 10 16 is_stmt 0       ## q2_extract_wiki_links.c:10:16
	jne	LBB4_49
Ltmp111:
LBB4_3:
	##DEBUG_VALUE: main:sourceCode <- [%r13+0]
	##DEBUG_VALUE: i <- %rbx
	##DEBUG_VALUE: validity:count <- 1
	##DEBUG_VALUE: i <- 1
	##DEBUG_VALUE: i <- %rbx
	##DEBUG_VALUE: findMiddleTag:index <- %rbx
	##DEBUG_VALUE: i <- %rbx
	##DEBUG_VALUE: findEndingTag:index <- %rbx
	##DEBUG_VALUE: validity:index <- %rbx
	##DEBUG_VALUE: validity:input <- %r13
	.loc	1 10 29                 ## q2_extract_wiki_links.c:10:29
	cmpb	$97, 1(%r13,%rbx)
Ltmp112:
	.loc	1 10 16                 ## q2_extract_wiki_links.c:10:16
	jne	LBB4_49
Ltmp113:
## %bb.4:
	##DEBUG_VALUE: validity:input <- %r13
	##DEBUG_VALUE: validity:index <- %rbx
	##DEBUG_VALUE: i <- %rbx
	##DEBUG_VALUE: main:sourceCode <- [%r13+0]
	##DEBUG_VALUE: validity:count <- 2
	##DEBUG_VALUE: i <- 2
	.loc	1 10 29                 ## q2_extract_wiki_links.c:10:29
	cmpb	$32, 2(%r13,%rbx)
Ltmp114:
	.loc	1 10 16                 ## q2_extract_wiki_links.c:10:16
	jne	LBB4_49
Ltmp115:
## %bb.5:
	##DEBUG_VALUE: validity:input <- %r13
	##DEBUG_VALUE: validity:index <- %rbx
	##DEBUG_VALUE: i <- %rbx
	##DEBUG_VALUE: main:sourceCode <- [%r13+0]
	##DEBUG_VALUE: validity:count <- 3
	##DEBUG_VALUE: i <- 3
	.loc	1 10 29                 ## q2_extract_wiki_links.c:10:29
	cmpb	$104, 3(%r13,%rbx)
Ltmp116:
	.loc	1 10 16                 ## q2_extract_wiki_links.c:10:16
	jne	LBB4_49
Ltmp117:
## %bb.6:
	##DEBUG_VALUE: validity:input <- %r13
	##DEBUG_VALUE: validity:index <- %rbx
	##DEBUG_VALUE: i <- %rbx
	##DEBUG_VALUE: main:sourceCode <- [%r13+0]
	##DEBUG_VALUE: validity:count <- 4
	##DEBUG_VALUE: i <- 4
	.loc	1 10 29                 ## q2_extract_wiki_links.c:10:29
	cmpb	$114, 4(%r13,%rbx)
Ltmp118:
	.loc	1 10 16                 ## q2_extract_wiki_links.c:10:16
	jne	LBB4_49
Ltmp119:
## %bb.7:
	##DEBUG_VALUE: validity:input <- %r13
	##DEBUG_VALUE: validity:index <- %rbx
	##DEBUG_VALUE: i <- %rbx
	##DEBUG_VALUE: main:sourceCode <- [%r13+0]
	##DEBUG_VALUE: validity:count <- 5
	##DEBUG_VALUE: i <- 5
	.loc	1 10 29                 ## q2_extract_wiki_links.c:10:29
	cmpb	$101, 5(%r13,%rbx)
Ltmp120:
	.loc	1 10 16                 ## q2_extract_wiki_links.c:10:16
	jne	LBB4_49
Ltmp121:
## %bb.8:
	##DEBUG_VALUE: validity:input <- %r13
	##DEBUG_VALUE: validity:index <- %rbx
	##DEBUG_VALUE: i <- %rbx
	##DEBUG_VALUE: main:sourceCode <- [%r13+0]
	##DEBUG_VALUE: validity:count <- 6
	##DEBUG_VALUE: i <- 6
	.loc	1 10 29                 ## q2_extract_wiki_links.c:10:29
	cmpb	$102, 6(%r13,%rbx)
Ltmp122:
	.loc	1 10 16                 ## q2_extract_wiki_links.c:10:16
	jne	LBB4_49
Ltmp123:
## %bb.9:
	##DEBUG_VALUE: validity:input <- %r13
	##DEBUG_VALUE: validity:index <- %rbx
	##DEBUG_VALUE: i <- %rbx
	##DEBUG_VALUE: main:sourceCode <- [%r13+0]
	##DEBUG_VALUE: validity:count <- 7
	##DEBUG_VALUE: i <- 7
	.loc	1 10 29                 ## q2_extract_wiki_links.c:10:29
	cmpb	$61, 7(%r13,%rbx)
Ltmp124:
	.loc	1 10 16                 ## q2_extract_wiki_links.c:10:16
	jne	LBB4_49
Ltmp125:
## %bb.10:
	##DEBUG_VALUE: validity:input <- %r13
	##DEBUG_VALUE: validity:index <- %rbx
	##DEBUG_VALUE: i <- %rbx
	##DEBUG_VALUE: main:sourceCode <- [%r13+0]
	##DEBUG_VALUE: validity:count <- 8
	##DEBUG_VALUE: i <- 8
	.loc	1 10 29                 ## q2_extract_wiki_links.c:10:29
	cmpb	$34, 8(%r13,%rbx)
Ltmp126:
	.loc	1 10 16                 ## q2_extract_wiki_links.c:10:16
	jne	LBB4_49
Ltmp127:
## %bb.11:
	##DEBUG_VALUE: validity:input <- %r13
	##DEBUG_VALUE: validity:index <- %rbx
	##DEBUG_VALUE: i <- %rbx
	##DEBUG_VALUE: main:sourceCode <- [%r13+0]
	##DEBUG_VALUE: validity:count <- 9
	##DEBUG_VALUE: i <- 9
	.loc	1 10 29                 ## q2_extract_wiki_links.c:10:29
	cmpb	$47, 9(%r13,%rbx)
Ltmp128:
	.loc	1 10 16                 ## q2_extract_wiki_links.c:10:16
	jne	LBB4_49
Ltmp129:
## %bb.12:
	##DEBUG_VALUE: validity:input <- %r13
	##DEBUG_VALUE: validity:index <- %rbx
	##DEBUG_VALUE: i <- %rbx
	##DEBUG_VALUE: main:sourceCode <- [%r13+0]
	##DEBUG_VALUE: validity:count <- 10
	##DEBUG_VALUE: i <- 10
	.loc	1 10 29                 ## q2_extract_wiki_links.c:10:29
	cmpb	$119, 10(%r13,%rbx)
Ltmp130:
	.loc	1 10 16                 ## q2_extract_wiki_links.c:10:16
	jne	LBB4_49
Ltmp131:
## %bb.13:
	##DEBUG_VALUE: validity:input <- %r13
	##DEBUG_VALUE: validity:index <- %rbx
	##DEBUG_VALUE: i <- %rbx
	##DEBUG_VALUE: main:sourceCode <- [%r13+0]
	##DEBUG_VALUE: validity:count <- 11
	##DEBUG_VALUE: i <- 11
	.loc	1 10 29                 ## q2_extract_wiki_links.c:10:29
	cmpb	$105, 11(%r13,%rbx)
Ltmp132:
	.loc	1 10 16                 ## q2_extract_wiki_links.c:10:16
	jne	LBB4_49
Ltmp133:
## %bb.14:
	##DEBUG_VALUE: validity:input <- %r13
	##DEBUG_VALUE: validity:index <- %rbx
	##DEBUG_VALUE: i <- %rbx
	##DEBUG_VALUE: main:sourceCode <- [%r13+0]
	##DEBUG_VALUE: validity:count <- 12
	##DEBUG_VALUE: i <- 12
	.loc	1 10 29                 ## q2_extract_wiki_links.c:10:29
	cmpb	$107, 12(%r13,%rbx)
Ltmp134:
	.loc	1 10 16                 ## q2_extract_wiki_links.c:10:16
	jne	LBB4_49
Ltmp135:
## %bb.15:
	##DEBUG_VALUE: validity:input <- %r13
	##DEBUG_VALUE: validity:index <- %rbx
	##DEBUG_VALUE: i <- %rbx
	##DEBUG_VALUE: main:sourceCode <- [%r13+0]
	##DEBUG_VALUE: validity:count <- 13
	##DEBUG_VALUE: i <- 13
	.loc	1 10 29                 ## q2_extract_wiki_links.c:10:29
	cmpb	$105, 13(%r13,%rbx)
Ltmp136:
	.loc	1 10 16                 ## q2_extract_wiki_links.c:10:16
	jne	LBB4_49
Ltmp137:
## %bb.16:
	##DEBUG_VALUE: validity:input <- %r13
	##DEBUG_VALUE: validity:index <- %rbx
	##DEBUG_VALUE: i <- %rbx
	##DEBUG_VALUE: main:sourceCode <- [%r13+0]
	##DEBUG_VALUE: validity:count <- 14
	##DEBUG_VALUE: i <- 14
	.loc	1 10 29                 ## q2_extract_wiki_links.c:10:29
	cmpb	$47, 14(%r13,%rbx)
Ltmp138:
	.loc	1 10 16                 ## q2_extract_wiki_links.c:10:16
	jne	LBB4_49
Ltmp139:
## %bb.17:
	##DEBUG_VALUE: validity:input <- %r13
	##DEBUG_VALUE: validity:index <- %rbx
	##DEBUG_VALUE: i <- %rbx
	##DEBUG_VALUE: main:sourceCode <- [%r13+0]
	##DEBUG_VALUE: validity:count <- 15
	##DEBUG_VALUE: findEndingTag:input <- %r13
	.loc	1 43 29 is_stmt 1       ## q2_extract_wiki_links.c:43:29
	movq	%r13, %rdi
	callq	_strlen
	.loc	1 43 28 is_stmt 0       ## q2_extract_wiki_links.c:43:28
	cmpq	%rbx, %rax
Ltmp140:
	.loc	1 43 9                  ## q2_extract_wiki_links.c:43:9
	jbe	LBB4_49
Ltmp141:
## %bb.18:
	##DEBUG_VALUE: findEndingTag:input <- %r13
	##DEBUG_VALUE: i <- %rbx
	##DEBUG_VALUE: main:sourceCode <- [%r13+0]
	.loc	1 0 9                   ## q2_extract_wiki_links.c:0:9
	movb	$60, %dl
Ltmp142:
	.loc	1 10 16 is_stmt 1       ## q2_extract_wiki_links.c:10:16
	movq	%r15, %rcx
Ltmp143:
	##DEBUG_VALUE: validity:count <- 0
	##DEBUG_VALUE: i <- 0
	.loc	1 10 29 is_stmt 0       ## q2_extract_wiki_links.c:10:29
	cmpb	$60, %dl
Ltmp144:
	.loc	1 10 16                 ## q2_extract_wiki_links.c:10:16
	jne	LBB4_21
	jmp	LBB4_20
Ltmp145:
LBB4_22:                                ##   in Loop: Header=BB4_21 Depth=1
	##DEBUG_VALUE: findEndingTag:input <- %r13
	##DEBUG_VALUE: i <- %rbx
	##DEBUG_VALUE: main:sourceCode <- [%r13+0]
	.loc	1 10 16                 ## q2_extract_wiki_links.c:10:16
	movzbl	(%r13,%rcx), %edx
Ltmp146:
	.loc	1 43 9 is_stmt 1        ## q2_extract_wiki_links.c:43:9
	incq	%rcx
	##DEBUG_VALUE: validity:count <- 0
	##DEBUG_VALUE: i <- 0
Ltmp147:
	.loc	1 10 29                 ## q2_extract_wiki_links.c:10:29
	cmpb	$60, %dl
Ltmp148:
	.loc	1 10 16 is_stmt 0       ## q2_extract_wiki_links.c:10:16
	jne	LBB4_21
Ltmp149:
LBB4_20:
	##DEBUG_VALUE: findEndingTag:input <- %r13
	##DEBUG_VALUE: i <- %rbx
	##DEBUG_VALUE: main:sourceCode <- [%r13+0]
	##DEBUG_VALUE: validity:count <- 1
	##DEBUG_VALUE: i <- 1
	##DEBUG_VALUE: validity:input <- %r13
	.loc	1 10 29                 ## q2_extract_wiki_links.c:10:29
	cmpb	$47, (%r13,%rcx)
Ltmp150:
	.loc	1 10 16                 ## q2_extract_wiki_links.c:10:16
	jne	LBB4_21
Ltmp151:
## %bb.51:
	##DEBUG_VALUE: validity:input <- %r13
	##DEBUG_VALUE: findEndingTag:input <- %r13
	##DEBUG_VALUE: i <- %rbx
	##DEBUG_VALUE: main:sourceCode <- [%r13+0]
	##DEBUG_VALUE: validity:count <- 2
	##DEBUG_VALUE: i <- 2
	.loc	1 10 29                 ## q2_extract_wiki_links.c:10:29
	cmpb	$97, 1(%r13,%rcx)
Ltmp152:
	.loc	1 10 16                 ## q2_extract_wiki_links.c:10:16
	jne	LBB4_21
Ltmp153:
## %bb.52:
	##DEBUG_VALUE: validity:input <- %r13
	##DEBUG_VALUE: findEndingTag:input <- %r13
	##DEBUG_VALUE: i <- %rbx
	##DEBUG_VALUE: main:sourceCode <- [%r13+0]
	##DEBUG_VALUE: validity:count <- 3
	##DEBUG_VALUE: i <- 3
	.loc	1 10 29                 ## q2_extract_wiki_links.c:10:29
	cmpb	$62, 2(%r13,%rcx)
Ltmp154:
	.loc	1 10 16                 ## q2_extract_wiki_links.c:10:16
	je	LBB4_25
Ltmp155:
LBB4_21:                                ## =>This Inner Loop Header: Depth=1
	##DEBUG_VALUE: findEndingTag:input <- %r13
	##DEBUG_VALUE: i <- %rbx
	##DEBUG_VALUE: main:sourceCode <- [%r13+0]
	##DEBUG_VALUE: validity:count <- 4
	.loc	1 43 28 is_stmt 1       ## q2_extract_wiki_links.c:43:28
	cmpq	%rcx, %rax
Ltmp156:
	.loc	1 43 9 is_stmt 0        ## q2_extract_wiki_links.c:43:9
	ja	LBB4_22
Ltmp157:
	.p2align	4, 0x90
LBB4_49:                                ## =>This Inner Loop Header: Depth=1
	##DEBUG_VALUE: main:sourceCode <- [%r13+0]
	.loc	1 77 42 is_stmt 1       ## q2_extract_wiki_links.c:77:42
	incq	%rbx
	.loc	1 77 21 is_stmt 0       ## q2_extract_wiki_links.c:77:21
	movq	%r13, %rdi
	callq	_strlen
	.loc	1 77 20                 ## q2_extract_wiki_links.c:77:20
	cmpq	%rbx, %rax
	ja	LBB4_50
	jmp	LBB4_23
Ltmp158:
LBB4_25:
	##DEBUG_VALUE: validity:input <- %r13
	##DEBUG_VALUE: findEndingTag:input <- %r13
	##DEBUG_VALUE: i <- %rbx
	##DEBUG_VALUE: main:sourceCode <- [%r13+0]
	##DEBUG_VALUE: validity:count <- 4
	.loc	1 79 52 is_stmt 1       ## q2_extract_wiki_links.c:79:52
	testl	%ecx, %ecx
Ltmp159:
	.loc	1 79 17 is_stmt 0       ## q2_extract_wiki_links.c:79:17
	je	LBB4_49
Ltmp160:
## %bb.26:
	##DEBUG_VALUE: i <- %rbx
	##DEBUG_VALUE: main:sourceCode <- [%r13+0]
	.loc	1 10 16 is_stmt 1       ## q2_extract_wiki_links.c:10:16
	movq	%r15, %rcx
Ltmp161:
	##DEBUG_VALUE: validity:count <- 0
	##DEBUG_VALUE: i <- 0
	.loc	1 10 29 is_stmt 0       ## q2_extract_wiki_links.c:10:29
	cmpb	$60, %r12b
Ltmp162:
	.loc	1 10 16                 ## q2_extract_wiki_links.c:10:16
	jne	LBB4_29
	jmp	LBB4_28
Ltmp163:
LBB4_31:                                ##   in Loop: Header=BB4_29 Depth=1
	##DEBUG_VALUE: i <- %rbx
	##DEBUG_VALUE: main:sourceCode <- [%r13+0]
	.loc	1 10 16                 ## q2_extract_wiki_links.c:10:16
	movzbl	(%r13,%rcx), %r12d
Ltmp164:
	.loc	1 43 9 is_stmt 1        ## q2_extract_wiki_links.c:43:9
	incq	%rcx
	##DEBUG_VALUE: validity:count <- 0
	##DEBUG_VALUE: i <- 0
Ltmp165:
	.loc	1 10 29                 ## q2_extract_wiki_links.c:10:29
	cmpb	$60, %r12b
Ltmp166:
	.loc	1 10 16 is_stmt 0       ## q2_extract_wiki_links.c:10:16
	jne	LBB4_29
Ltmp167:
LBB4_28:
	##DEBUG_VALUE: i <- %rbx
	##DEBUG_VALUE: main:sourceCode <- [%r13+0]
	##DEBUG_VALUE: validity:count <- 1
	##DEBUG_VALUE: i <- 1
	##DEBUG_VALUE: validity:input <- %r13
	.loc	1 10 29                 ## q2_extract_wiki_links.c:10:29
	cmpb	$47, (%r13,%rcx)
Ltmp168:
	.loc	1 10 16                 ## q2_extract_wiki_links.c:10:16
	jne	LBB4_29
Ltmp169:
## %bb.53:
	##DEBUG_VALUE: validity:input <- %r13
	##DEBUG_VALUE: i <- %rbx
	##DEBUG_VALUE: main:sourceCode <- [%r13+0]
	##DEBUG_VALUE: validity:count <- 2
	##DEBUG_VALUE: i <- 2
	.loc	1 10 29                 ## q2_extract_wiki_links.c:10:29
	cmpb	$97, 1(%r13,%rcx)
Ltmp170:
	.loc	1 10 16                 ## q2_extract_wiki_links.c:10:16
	jne	LBB4_29
Ltmp171:
## %bb.54:
	##DEBUG_VALUE: validity:input <- %r13
	##DEBUG_VALUE: i <- %rbx
	##DEBUG_VALUE: main:sourceCode <- [%r13+0]
	##DEBUG_VALUE: validity:count <- 3
	##DEBUG_VALUE: i <- 3
	.loc	1 10 29                 ## q2_extract_wiki_links.c:10:29
	cmpb	$62, 2(%r13,%rcx)
Ltmp172:
	.loc	1 10 16                 ## q2_extract_wiki_links.c:10:16
	je	LBB4_32
Ltmp173:
LBB4_29:                                ## =>This Inner Loop Header: Depth=1
	##DEBUG_VALUE: i <- %rbx
	##DEBUG_VALUE: main:sourceCode <- [%r13+0]
	##DEBUG_VALUE: validity:count <- 4
	.loc	1 43 28 is_stmt 1       ## q2_extract_wiki_links.c:43:28
	cmpq	%rcx, %rax
Ltmp174:
	.loc	1 43 9 is_stmt 0        ## q2_extract_wiki_links.c:43:9
	ja	LBB4_31
Ltmp175:
## %bb.30:
	##DEBUG_VALUE: main:sourceCode <- [%r13+0]
	.loc	1 0 9                   ## q2_extract_wiki_links.c:0:9
	movq	$-1, %rcx
Ltmp176:
LBB4_33:
	##DEBUG_VALUE: main:sourceCode <- [%r13+0]
	.loc	1 33 28 is_stmt 1       ## q2_extract_wiki_links.c:33:28
	movslq	%ecx, %rax
	movq	%rax, -96(%rbp)         ## 8-byte Spill
	cmpq	%rax, %rbx
Ltmp177:
	.loc	1 33 9 is_stmt 0        ## q2_extract_wiki_links.c:33:9
	jge	LBB4_49
Ltmp178:
## %bb.34:
	##DEBUG_VALUE: main:sourceCode <- [%r13+0]
	.loc	1 8 27 is_stmt 1        ## q2_extract_wiki_links.c:8:27
	leaq	-56(%rbp), %rdi
	callq	_strlen
	movq	%r14, -72(%rbp)         ## 8-byte Spill
	movq	%rbx, %rdx
	movq	%rax, -88(%rbp)         ## 8-byte Spill
Ltmp179:
LBB4_36:                                ## =>This Loop Header: Depth=1
                                        ##     Child Loop BB4_39 Depth 2
	##DEBUG_VALUE: main:sourceCode <- [%r13+0]
	.loc	1 0 27 is_stmt 0        ## q2_extract_wiki_links.c:0:27
	testq	%rax, %rax
Ltmp180:
	##DEBUG_VALUE: i <- 0
	##DEBUG_VALUE: validity:count <- 0
	.loc	1 8 9                   ## q2_extract_wiki_links.c:8:9
	je	LBB4_37
Ltmp181:
## %bb.38:                              ##   in Loop: Header=BB4_36 Depth=1
	##DEBUG_VALUE: main:sourceCode <- [%r13+0]
	.loc	1 0 9                   ## q2_extract_wiki_links.c:0:9
	movq	%rdx, -64(%rbp)         ## 8-byte Spill
	xorl	%r12d, %r12d
Ltmp182:
LBB4_39:                                ##   Parent Loop BB4_36 Depth=1
                                        ## =>  This Inner Loop Header: Depth=2
	##DEBUG_VALUE: main:sourceCode <- [%r13+0]
	##DEBUG_VALUE: validity:count <- %r12
	.loc	1 10 16 is_stmt 1       ## q2_extract_wiki_links.c:10:16
	movq	-72(%rbp), %rcx         ## 8-byte Reload
Ltmp183:
	##DEBUG_VALUE: i <- %r12
	movzbl	(%rcx,%r12), %ecx
	.loc	1 10 29 is_stmt 0       ## q2_extract_wiki_links.c:10:29
	cmpb	-56(%rbp,%r12), %cl
Ltmp184:
	.loc	1 10 16                 ## q2_extract_wiki_links.c:10:16
	jne	LBB4_43
Ltmp185:
## %bb.40:                              ##   in Loop: Header=BB4_39 Depth=2
	##DEBUG_VALUE: i <- %r12
	##DEBUG_VALUE: validity:count <- %r12
	##DEBUG_VALUE: main:sourceCode <- [%r13+0]
	.loc	1 0 16                  ## q2_extract_wiki_links.c:0:16
	movq	%r12, -104(%rbp)        ## 8-byte Spill
Ltmp186:
	.loc	1 11 22 is_stmt 1       ## q2_extract_wiki_links.c:11:22
	incq	%r12
Ltmp187:
	.loc	1 17 23                 ## q2_extract_wiki_links.c:17:23
	cmpq	%rax, %r12
Ltmp188:
	.loc	1 17 17 is_stmt 0       ## q2_extract_wiki_links.c:17:17
	je	LBB4_42
Ltmp189:
## %bb.41:                              ##   in Loop: Header=BB4_39 Depth=2
	##DEBUG_VALUE: main:sourceCode <- [%r13+0]
	.loc	1 8 27 is_stmt 1        ## q2_extract_wiki_links.c:8:27
	leaq	-56(%rbp), %rdi
	callq	_strlen
	.loc	1 8 26 is_stmt 0        ## q2_extract_wiki_links.c:8:26
	cmpq	%r12, %rax
Ltmp190:
	.loc	1 8 9                   ## q2_extract_wiki_links.c:8:9
	ja	LBB4_39
Ltmp191:
LBB4_42:                                ##   in Loop: Header=BB4_36 Depth=1
	##DEBUG_VALUE: main:sourceCode <- [%r13+0]
	.loc	1 0 9                   ## q2_extract_wiki_links.c:0:9
	movq	-104(%rbp), %r12        ## 8-byte Reload
Ltmp192:
	.loc	1 24 9 is_stmt 1        ## q2_extract_wiki_links.c:24:9
	incl	%r12d
Ltmp193:
LBB4_43:                                ##   in Loop: Header=BB4_36 Depth=1
	##DEBUG_VALUE: main:sourceCode <- [%r13+0]
	.loc	1 0 9 is_stmt 0         ## q2_extract_wiki_links.c:0:9
	movq	-64(%rbp), %rdx         ## 8-byte Reload
	jmp	LBB4_44
Ltmp194:
LBB4_37:                                ##   in Loop: Header=BB4_36 Depth=1
	##DEBUG_VALUE: main:sourceCode <- [%r13+0]
	xorl	%eax, %eax
	xorl	%r12d, %r12d
Ltmp195:
LBB4_44:                                ##   in Loop: Header=BB4_36 Depth=1
	##DEBUG_VALUE: main:sourceCode <- [%r13+0]
	##DEBUG_VALUE: validity:count <- %r12d
	.loc	1 24 9                  ## q2_extract_wiki_links.c:24:9
	movslq	%r12d, %rcx
Ltmp196:
	##DEBUG_VALUE: i <- %rdx
	.loc	1 24 15                 ## q2_extract_wiki_links.c:24:15
	cmpq	%rcx, %rax
Ltmp197:
	.loc	1 34 17 is_stmt 1       ## q2_extract_wiki_links.c:34:17
	je	LBB4_45
Ltmp198:
## %bb.35:                              ##   in Loop: Header=BB4_36 Depth=1
	##DEBUG_VALUE: i <- %rdx
	##DEBUG_VALUE: main:sourceCode <- [%r13+0]
	.loc	1 0 17 is_stmt 0        ## q2_extract_wiki_links.c:0:17
	incq	%rdx
Ltmp199:
	.loc	1 33 9 is_stmt 1        ## q2_extract_wiki_links.c:33:9
	incq	-72(%rbp)               ## 8-byte Folded Spill
Ltmp200:
	.loc	1 33 28 is_stmt 0       ## q2_extract_wiki_links.c:33:28
	cmpq	-96(%rbp), %rdx         ## 8-byte Folded Reload
	movq	-88(%rbp), %rax         ## 8-byte Reload
	jl	LBB4_36
	jmp	LBB4_49
Ltmp201:
LBB4_45:
	##DEBUG_VALUE: i <- %rdx
	##DEBUG_VALUE: validity:count <- %r12d
	##DEBUG_VALUE: main:sourceCode <- [%r13+0]
	##DEBUG_VALUE: findMiddleTag:input <- %r13
	##DEBUG_VALUE: validity:input <- %r13
	##DEBUG_VALUE: printTitle:input <- %r13
	.loc	1 53 19 is_stmt 1       ## q2_extract_wiki_links.c:53:19
	movb	15(%r13,%rbx), %al
	.loc	1 53 32 is_stmt 0       ## q2_extract_wiki_links.c:53:32
	cmpb	$34, %al
	.loc	1 53 13                 ## q2_extract_wiki_links.c:53:13
	je	LBB4_48
Ltmp202:
## %bb.46:
	##DEBUG_VALUE: main:sourceCode <- [%r13+0]
	.loc	1 0 13                  ## q2_extract_wiki_links.c:0:13
	movq	-80(%rbp), %r12         ## 8-byte Reload
Ltmp203:
LBB4_47:                                ## =>This Inner Loop Header: Depth=1
	##DEBUG_VALUE: main:sourceCode <- [%r13+0]
	.loc	1 53 19                 ## q2_extract_wiki_links.c:53:19
	movsbl	%al, %edi
Ltmp204:
	.loc	1 54 17 is_stmt 1       ## q2_extract_wiki_links.c:54:17
	callq	_putchar
Ltmp205:
	.loc	1 53 19                 ## q2_extract_wiki_links.c:53:19
	movzbl	(%r12), %eax
	.loc	1 53 13 is_stmt 0       ## q2_extract_wiki_links.c:53:13
	incq	%r12
	.loc	1 53 32                 ## q2_extract_wiki_links.c:53:32
	cmpb	$34, %al
	.loc	1 53 13                 ## q2_extract_wiki_links.c:53:13
	jne	LBB4_47
Ltmp206:
LBB4_48:
	##DEBUG_VALUE: main:sourceCode <- [%r13+0]
	.loc	1 57 13 is_stmt 1       ## q2_extract_wiki_links.c:57:13
	movl	$10, %edi
	callq	_putchar
	jmp	LBB4_49
Ltmp207:
LBB4_32:
	##DEBUG_VALUE: validity:input <- %r13
	##DEBUG_VALUE: i <- %rbx
	##DEBUG_VALUE: main:sourceCode <- [%r13+0]
	.loc	1 10 16                 ## q2_extract_wiki_links.c:10:16
	decq	%rcx
	jmp	LBB4_33
Ltmp208:
LBB4_23:
	##DEBUG_VALUE: main:sourceCode <- [%r13+0]
	.loc	1 0 16 is_stmt 0        ## q2_extract_wiki_links.c:0:16
	movq	___stack_chk_guard@GOTPCREL(%rip), %rax
	movq	(%rax), %rax
	cmpq	-48(%rbp), %rax
	jne	LBB4_55
Ltmp209:
## %bb.24:
	##DEBUG_VALUE: main:sourceCode <- [%r13+0]
	.loc	1 89 5 is_stmt 1        ## q2_extract_wiki_links.c:89:5
	xorl	%eax, %eax
	leaq	-40(%rbp), %rsp
	popq	%rbx
	popq	%r12
	popq	%r13
Ltmp210:
	popq	%r14
	popq	%r15
	popq	%rbp
	retq
Ltmp211:
LBB4_55:
	##DEBUG_VALUE: main:sourceCode <- [%r13+0]
	.loc	1 0 5 is_stmt 0         ## q2_extract_wiki_links.c:0:5
	callq	___stack_chk_fail
Lfunc_end4:
	.cfi_endproc
                                        ## -- End function
	.section	__TEXT,__cstring,cstring_literals
L_.str.2:                               ## @.str.2
	.asciz	"r"

	.file	2 "/usr/include" "_stdio.h"
	.file	3 "/usr/include/i386" "_types.h"
	.file	4 "/usr/include/sys" "_types.h"